; Function Attrs: mustprogress nounwind null_pointer_is_valid sspstrong uwtable
define void @_ZN21ShowPacketBytesDialogD2Ev(ptr noundef align 8 dereferenceable_or_null(296) initializes((0, 8), (16, 24)) %0) unnamed_addr #6 align 2 {
  store ptr getelementptr inbounds nuw inrange(-16, 496) (i8, ptr @_ZTV21ShowPacketBytesDialog, i64 16), ptr %0, align 8
  %2 = getelementptr inbounds nuw i8, ptr %0, i64 16
  store ptr getelementptr inbounds nuw inrange(-16, 64) (i8, ptr @_ZTV21ShowPacketBytesDialog, i64 528), ptr %2, align 8
  %3 = getelementptr inbounds nuw i8, ptr %0, i64 144
  %4 = load ptr, ptr %3, align 8
  %5 = icmp eq ptr %4, null
  br i1 %5, label %7, label %6

6:                                                ; preds = %1
  tail call void @_ZdlPvm(ptr noundef nonnull %4, i64 noundef 152) #29
  br label %7

7:                                                ; preds = %6, %1
  %8 = getelementptr inbounds nuw i8, ptr %0, i64 272
  tail call void @_ZN6QImageD1Ev(ptr noundef nonnull align 8 dereferenceable_or_null(24) %8) #28
  %9 = getelementptr inbounds nuw i8, ptr %0, i64 208
  %10 = load ptr, ptr %9, align 8
  %.not.i.i.i = icmp eq ptr %10, null
  br i1 %.not.i.i.i, label %_ZN7QStringD2Ev.exit, label %_ZN17QArrayDataPointerIDsE5derefEv.exit.i.i

_ZN17QArrayDataPointerIDsE5derefEv.exit.i.i:      ; preds = %7
  %11 = atomicrmw sub ptr %10, i32 1 seq_cst, align 4
  %.not.i.i = icmp eq i32 %11, 1
  br i1 %.not.i.i, label %12, label %_ZN7QStringD2Ev.exit

12:                                               ; preds = %_ZN17QArrayDataPointerIDsE5derefEv.exit.i.i
  %13 = load ptr, ptr %9, align 8
  tail call void @_ZN10QArrayData10deallocateEPS_xx(ptr noundef %13, i64 noundef 2, i64 noundef 8) #28
  br label %_ZN7QStringD2Ev.exit

_ZN7QStringD2Ev.exit:                             ; preds = %7, %_ZN17QArrayDataPointerIDsE5derefEv.exit.i.i, %12
  %14 = getelementptr inbounds nuw i8, ptr %0, i64 184
  %15 = load ptr, ptr %14, align 8
  %.not.i.i.i1 = icmp eq ptr %15, null
  br i1 %.not.i.i.i1, label %_ZN7QStringD2Ev.exit4, label %_ZN17QArrayDataPointerIDsE5derefEv.exit.i.i2

_ZN17QArrayDataPointerIDsE5derefEv.exit.i.i2:     ; preds = %_ZN7QStringD2Ev.exit
  %16 = atomicrmw sub ptr %15, i32 1 seq_cst, align 4
  %.not.i.i3 = icmp eq i32 %16, 1
  br i1 %.not.i.i3, label %17, label %_ZN7QStringD2Ev.exit4

17:                                               ; preds = %_ZN17QArrayDataPointerIDsE5derefEv.exit.i.i2
  %18 = load ptr, ptr %14, align 8
  tail call void @_ZN10QArrayData10deallocateEPS_xx(ptr noundef %18, i64 noundef 2, i64 noundef 8) #28
  br label %_ZN7QStringD2Ev.exit4

_ZN7QStringD2Ev.exit4:                            ; preds = %_ZN7QStringD2Ev.exit, %_ZN17QArrayDataPointerIDsE5derefEv.exit.i.i2, %17
  %19 = getelementptr inbounds nuw i8, ptr %0, i64 160
  %20 = load ptr, ptr %19, align 8
  %.not.i.i.i5 = icmp eq ptr %20, null
  br i1 %.not.i.i.i5, label %_ZN10QByteArrayD2Ev.exit, label %_ZN17QArrayDataPointerIcE5derefEv.exit.i.i

_ZN17QArrayDataPointerIcE5derefEv.exit.i.i:       ; preds = %_ZN7QStringD2Ev.exit4
  %21 = atomicrmw sub ptr %20, i32 1 seq_cst, align 4
  %.not.i.i6 = icmp eq i32 %21, 1
  br i1 %.not.i.i6, label %22, label %_ZN10QByteArrayD2Ev.exit

22:                                               ; preds = %_ZN17QArrayDataPointerIcE5derefEv.exit.i.i
  %23 = load ptr, ptr %19, align 8
  tail call void @_ZN10QArrayData10deallocateEPS_xx(ptr noundef %23, i64 noundef 1, i64 noundef 8) #28
  br label %_ZN10QByteArrayD2Ev.exit

_ZN10QByteArrayD2Ev.exit:                         ; preds = %_ZN7QStringD2Ev.exit4, %_ZN17QArrayDataPointerIcE5derefEv.exit.i.i, %22
  store ptr getelementptr inbounds nuw inrange(-16, 496) (i8, ptr @_ZTV15WiresharkDialog, i64 16), ptr %0, align 8
  store ptr getelementptr inbounds nuw inrange(-16, 64) (i8, ptr @_ZTV15WiresharkDialog, i64 528), ptr %2, align 8
  %24 = getelementptr inbounds nuw i8, ptr %0, i64 112
  %25 = load ptr, ptr %24, align 8
  %.not.i.i.i.i = icmp eq ptr %25, null
  br i1 %.not.i.i.i.i, label %_ZN5QListIPvED2Ev.exit.i, label %_ZN17QArrayDataPointerIPvE5derefEv.exit.i.i.i

_ZN17QArrayDataPointerIPvE5derefEv.exit.i.i.i:    ; preds = %_ZN10QByteArrayD2Ev.exit
  %26 = atomicrmw sub ptr %25, i32 1 seq_cst, align 4
  %.not.i.i.i7 = icmp eq i32 %26, 1
  br i1 %.not.i.i.i7, label %27, label %_ZN5QListIPvED2Ev.exit.i

27:                                               ; preds = %_ZN17QArrayDataPointerIPvE5derefEv.exit.i.i.i
  %28 = load ptr, ptr %24, align 8
  tail call void @_ZN10QArrayData10deallocateEPS_xx(ptr noundef %28, i64 noundef 8, i64 noundef 8) #28
  br label %_ZN5QListIPvED2Ev.exit.i

_ZN5QListIPvED2Ev.exit.i:                         ; preds = %27, %_ZN17QArrayDataPointerIPvE5derefEv.exit.i.i.i, %_ZN10QByteArrayD2Ev.exit
  %29 = getelementptr inbounds nuw i8, ptr %0, i64 88
  %30 = load ptr, ptr %29, align 8
  %.not.i.i.i1.i = icmp eq ptr %30, null
  br i1 %.not.i.i.i1.i, label %_ZN15WiresharkDialogD2Ev.exit, label %_ZN17QArrayDataPointerIDsE5derefEv.exit.i.i.i

_ZN17QArrayDataPointerIDsE5derefEv.exit.i.i.i:    ; preds = %_ZN5QListIPvED2Ev.exit.i
  %31 = atomicrmw sub ptr %30, i32 1 seq_cst, align 4
  %.not.i.i2.i = icmp eq i32 %31, 1
  br i1 %.not.i.i2.i, label %32, label %_ZN15WiresharkDialogD2Ev.exit

32:                                               ; preds = %_ZN17QArrayDataPointerIDsE5derefEv.exit.i.i.i
  %33 = load ptr, ptr %29, align 8
  tail call void @_ZN10QArrayData10deallocateEPS_xx(ptr noundef %33, i64 noundef 2, i64 noundef 8) #28
  br label %_ZN15WiresharkDialogD2Ev.exit

_ZN15WiresharkDialogD2Ev.exit:                    ; preds = %_ZN5QListIPvED2Ev.exit.i, %_ZN17QArrayDataPointerIDsE5derefEv.exit.i.i.i, %32
  tail call void @_ZN19GeometryStateDialogD2Ev(ptr noundef align 8 dereferenceable_or_null(141) %0) #28
  ret void
}